target datalayout = "e-m:e-p270:32:32-p271:32:32-p272:64:64-i64:64-i128:128-f80:128-n8:16:32:64-S128"
target triple = "x86_64-unknown-linux-gnu"

%"class.std::__cxx11::basic_string" = type { %"struct.std::__cxx11::basic_string<char>::_Alloc_hider", i64, %union.anon }
%"struct.std::__cxx11::basic_string<char>::_Alloc_hider" = type { ptr }
%union.anon = type { i64, [8 x i8] }
%"class.Assimp::DXF::LineReader" = type <{ %"class.Assimp::LineSplitter", i32, [4 x i8], %"class.std::__cxx11::basic_string", i32, [4 x i8] }>
%"class.Assimp::LineSplitter" = type <{ i64, %"class.std::__cxx11::basic_string", ptr, i8, i8, i8, [5 x i8] }>

@.str.3 = private unnamed_addr constant [7 x i8] c"ENDSEC\00", align 1

; Function Attrs: mustprogress nounwind uwtable
define linkonce_odr hidden noundef zeroext i1 @_ZNK6Assimp3DXF10LineReadercvbEv(ptr noundef nonnull align 8 dereferenceable(100) %this) #0 comdat align 2 {
entry:
  %this.addr = alloca ptr, align 8
  store ptr %this, ptr %this.addr, align 8
  %this1 = load ptr, ptr %this.addr, align 8
  %end = getelementptr inbounds %"class.Assimp::DXF::LineReader", ptr %this1, i32 0, i32 4
  %0 = load i32, ptr %end, align 8
  %cmp = icmp sle i32 %0, 1
  ret i1 %cmp
}

; Function Attrs: mustprogress uwtable
define linkonce_odr hidden noundef nonnull align 8 dereferenceable(100) ptr @_ZN6Assimp3DXF10LineReaderppEi(ptr noundef nonnull align 8 dereferenceable(100) %this, i32 noundef %0) #3 comdat align 2 {
entry:
  %this.addr = alloca ptr, align 8
  %.addr = alloca i32, align 4
  store ptr %this, ptr %this.addr, align 8
  store i32 %0, ptr %.addr, align 4
  %this1 = load ptr, ptr %this.addr, align 8
  %call = call noundef nonnull align 8 dereferenceable(100) ptr @_ZN6Assimp3DXF10LineReaderppEv(ptr noundef nonnull align 8 dereferenceable(100) %this1)
  ret ptr %call
}

; Function Attrs: mustprogress nounwind uwtable
define linkonce_odr hidden noundef zeroext i1 @_ZNK6Assimp3DXF10LineReader2IsEiPKc(ptr noundef nonnull align 8 dereferenceable(100) %this, i32 noundef %gc, ptr noundef %what) #0 comdat align 2 {
entry:
  %this.addr = alloca ptr, align 8
  %gc.addr = alloca i32, align 4
  %what.addr = alloca ptr, align 8
  store ptr %this, ptr %this.addr, align 8
  store i32 %gc, ptr %gc.addr, align 4
  store ptr %what, ptr %what.addr, align 8
  %this1 = load ptr, ptr %this.addr, align 8
  %groupcode = getelementptr inbounds %"class.Assimp::DXF::LineReader", ptr %this1, i32 0, i32 1
  %0 = load i32, ptr %groupcode, align 8
  %1 = load i32, ptr %gc.addr, align 4
  %cmp = icmp eq i32 %0, %1
  br i1 %cmp, label %land.rhs, label %land.end

land.rhs:                                         ; preds = %entry
  %2 = load ptr, ptr %what.addr, align 8
  %value = getelementptr inbounds %"class.Assimp::DXF::LineReader", ptr %this1, i32 0, i32 3
  %call = call noundef ptr @_ZNKSt7__cxx1112basic_stringIcSt11char_traitsIcESaIcEE5c_strEv(ptr noundef nonnull align 8 dereferenceable(32) %value) #17
  %call2 = call i32 @strcmp(ptr noundef %2, ptr noundef %call) #19
  %tobool = icmp ne i32 %call2, 0
  %lnot = xor i1 %tobool, true
  br label %land.end

land.end:                                         ; preds = %land.rhs, %entry
  %3 = phi i1 [ false, %entry ], [ %lnot, %land.rhs ]
  ret i1 %3
}

; Function Attrs: mustprogress uwtable
define linkonce_odr hidden noundef zeroext i1 @_ZNK6Assimp3DXF10LineReader3EndEv(ptr noundef nonnull align 8 dereferenceable(100) %this) #3 comdat align 2 {
entry:
  %this.addr = alloca ptr, align 8
  store ptr %this, ptr %this.addr, align 8
  %this1 = load ptr, ptr %this.addr, align 8
  %call = call noundef zeroext i1 @_ZNK6Assimp3DXF10LineReadercvbEv(ptr noundef nonnull align 8 dereferenceable(100) %this1)
  %lnot = xor i1 %call, true
  ret i1 %lnot
}

; Function Attrs: mustprogress uwtable
define hidden void @_ZN6Assimp11DXFImporter11ParseHeaderERNS_3DXF10LineReaderERNS1_8FileDataE(ptr noundef nonnull align 8 dereferenceable(72) %this, ptr noundef nonnull align 8 dereferenceable(100) %reader, ptr noundef nonnull align 8 dereferenceable(24) %0) #3 align 2 {
entry:
  %this.addr = alloca ptr, align 8
  %reader.addr = alloca ptr, align 8
  %.addr = alloca ptr, align 8
  store ptr %this, ptr %this.addr, align 8
  store ptr %reader, ptr %reader.addr, align 8
  store ptr %0, ptr %.addr, align 8
  br label %for.cond

for.cond:                                         ; preds = %for.inc, %entry
  %1 = load ptr, ptr %reader.addr, align 8
  %call = call noundef zeroext i1 @_ZNK6Assimp3DXF10LineReader3EndEv(ptr noundef nonnull align 8 dereferenceable(100) %1)
  br i1 %call, label %land.end, label %land.rhs

land.rhs:                                         ; preds = %for.cond
  %2 = load ptr, ptr %reader.addr, align 8
  %call2 = call noundef zeroext i1 @_ZNK6Assimp3DXF10LineReader2IsEiPKc(ptr noundef nonnull align 8 dereferenceable(100) %2, i32 noundef 0, ptr noundef @.str.3)
  %lnot = xor i1 %call2, true
  br label %land.end

land.end:                                         ; preds = %land.rhs, %for.cond
  %3 = phi i1 [ false, %for.cond ], [ %lnot, %land.rhs ]
  br i1 %3, label %for.body, label %for.end

for.body:                                         ; preds = %land.end
  br label %for.inc

for.inc:                                          ; preds = %for.body
  %4 = load ptr, ptr %reader.addr, align 8
  %call3 = call noundef nonnull align 8 dereferenceable(100) ptr @_ZN6Assimp3DXF10LineReaderppEi(ptr noundef nonnull align 8 dereferenceable(100) %4, i32 noundef 0)
  br label %for.cond, !llvm.loop !9

for.end:                                          ; preds = %land.end
  ret void
}