; Function Attrs: mustprogress uwtable
define hidden void @_ZN6Assimp11DXFImporter11ParseHeaderERNS_3DXF10LineReaderERNS1_8FileDataE(ptr nocapture noundef nonnull readnone align 8 dereferenceable(72) %this, ptr noundef nonnull align 8 dereferenceable(100) %reader, ptr nocapture noundef nonnull readnone align 8 dereferenceable(24) %0) local_unnamed_addr #0 align 2 {
entry:
  %value.i = getelementptr inbounds i8, ptr %reader, i64 64
  %end.i.i = getelementptr inbounds i8, ptr %reader, i64 96
  %1 = load i32, ptr %end.i.i, align 8
  %cmp.i.i4 = icmp sgt i32 %1, 1
  br i1 %cmp.i.i4, label %for.end, label %land.rhs.lr.ph

land.rhs.lr.ph:                                   ; preds = %entry
  %groupcode.i = getelementptr inbounds i8, ptr %reader, i64 56
  br label %land.rhs

land.rhs:                                         ; preds = %land.rhs.lr.ph, %for.inc
  %2 = load i32, ptr %groupcode.i, align 8
  %cmp.i = icmp eq i32 %2, 0
  br i1 %cmp.i, label %_ZNK6Assimp3DXF10LineReader2IsEiPKc.exit, label %for.inc

_ZNK6Assimp3DXF10LineReader2IsEiPKc.exit:         ; preds = %land.rhs
  %call.i = tail call noundef ptr @_ZNKSt7__cxx1112basic_stringIcSt11char_traitsIcESaIcEE5c_strEv(ptr noundef nonnull align 8 dereferenceable(32) %value.i) #20
  %call2.i = tail call i32 @strcmp(ptr noundef nonnull dereferenceable(7) @.str.3, ptr noundef nonnull dereferenceable(1) %call.i) #24
  %tobool.not.i = icmp eq i32 %call2.i, 0
  br i1 %tobool.not.i, label %for.end, label %for.inc

for.inc:                                          ; preds = %land.rhs, %_ZNK6Assimp3DXF10LineReader2IsEiPKc.exit
  %call.i3 = tail call noundef nonnull align 8 dereferenceable(100) ptr @_ZN6Assimp3DXF10LineReaderppEv(ptr noundef nonnull align 8 dereferenceable(100) %reader)
  %3 = load i32, ptr %end.i.i, align 8
  %cmp.i.i = icmp sgt i32 %3, 1
  br i1 %cmp.i.i, label %for.end, label %land.rhs, !llvm.loop !7

for.end:                                          ; preds = %_ZNK6Assimp3DXF10LineReader2IsEiPKc.exit, %for.inc, %entry
  ret void
}